; Function Attrs: mustprogress uwtable
define noundef ptr @_ZN6icu_7511MeasureUnit12createDecadeER10UErrorCode(ptr nocapture noundef nonnull align 4 dereferenceable(4) %status) local_unnamed_addr #1 align 2 personality ptr @__gxx_personality_v0 {
entry:
  %0 = load i32, ptr %status, align 4
  %cmp.i.i = icmp slt i32 %0, 1
  br i1 %cmp.i.i, label %if.end.i, label %_ZN6icu_7511MeasureUnit6createEiiR10UErrorCode.exit

if.end.i:                                         ; preds = %entry
  %call1.i = tail call noundef ptr @_ZN6icu_757UMemorynwEm(i64 noundef 24) #17
  %new.isnull.i = icmp eq ptr %call1.i, null
  br i1 %new.isnull.i, label %if.then2.i, label %new.notnull.i

new.notnull.i:                                    ; preds = %if.end.i
  invoke void @_ZN6icu_7511MeasureUnitC1Eii(ptr noundef nonnull align 8 dereferenceable(19) %call1.i, i32 noundef 7, i32 noundef 3)
          to label %_ZN6icu_7511MeasureUnit6createEiiR10UErrorCode.exit unwind label %lpad.i

if.then2.i:                                       ; preds = %if.end.i
  store i32 7, ptr %status, align 4
  br label %_ZN6icu_7511MeasureUnit6createEiiR10UErrorCode.exit

lpad.i:                                           ; preds = %new.notnull.i
  %1 = landingpad { ptr, i32 }
          cleanup
  tail call void @_ZN6icu_757UMemorydlEPv(ptr noundef nonnull %call1.i) #17
  resume { ptr, i32 } %1

_ZN6icu_7511MeasureUnit6createEiiR10UErrorCode.exit: ; preds = %entry, %new.notnull.i, %if.then2.i
  %retval.0.i = phi ptr [ null, %entry ], [ null, %if.then2.i ], [ %call1.i, %new.notnull.i ]
  ret ptr %retval.0.i
}